; Function Attrs: mustprogress nofree norecurse nosync nounwind willreturn memory(write, argmem: readwrite, inaccessiblemem: none) uwtable
define internal void @VULKAN_InvalidateCachedState(ptr noundef readonly captures(none) %0) #5 {
  %2 = getelementptr inbounds nuw i8, ptr %0, i64 696
  %3 = load ptr, ptr %2, align 8
  %4 = getelementptr inbounds nuw i8, ptr %3, i64 10344
  store ptr null, ptr %4, align 8
  %5 = getelementptr inbounds nuw i8, ptr %3, i64 10496
  store i8 1, ptr %5, align 8
  ret void
}